; ModuleID = '24/422.c'
source_filename = "24/422.c"
target datalayout = "e-m:e-p270:32:32-p271:32:32-p272:64:64-i64:64-f80:128-n8:16:32:64-S128"
target triple = "x86_64-pc-linux-gnu"

@.str = private unnamed_addr constant [6 x i8] c"%s\0A%s\00", align 1

; Function Attrs: noinline nounwind uwtable
define dso_local i32 @main() #0 {
  %1 = alloca i32, align 4
  %2 = alloca i32, align 4
  %3 = alloca i32, align 4
  %4 = alloca i32, align 4
  %5 = alloca i32, align 4
  %6 = alloca i32, align 4
  %7 = alloca i32, align 4
  %8 = alloca i32, align 4
  %9 = alloca [200 x [20 x i8]], align 16
  %10 = alloca [500 x i8], align 16
  %11 = alloca i32, align 4
  %12 = alloca i32, align 4
  %13 = alloca i32, align 4
  store i32 0, i32* %1, align 4
  %14 = getelementptr inbounds [500 x i8], [500 x i8]* %10, i64 0, i64 0
  %15 = call i32 (i8*, ...) bitcast (i32 (...)* @gets to i32 (i8*, ...)*)(i8* %14)
  %16 = getelementptr inbounds [500 x i8], [500 x i8]* %10, i64 0, i64 0
  %17 = call i64 @strlen(i8* %16) #4
  %18 = trunc i64 %17 to i32
  store i32 %18, i32* %11, align 4
  %19 = load i32, i32* %11, align 4
  %20 = sext i32 %19 to i64
  %21 = getelementptr inbounds [500 x i8], [500 x i8]* %10, i64 0, i64 %20
  store i8 32, i8* %21, align 1
  %22 = load i32, i32* %11, align 4
  %23 = add nsw i32 %22, 1
  %24 = sext i32 %23 to i64
  %25 = getelementptr inbounds [500 x i8], [500 x i8]* %10, i64 0, i64 %24
  store i8 0, i8* %25, align 1
  store i32 0, i32* %12, align 4
  store i32 0, i32* %8, align 4
  store i32 0, i32* %5, align 4
  br label %26

26:                                               ; preds = %64, %0
  %27 = load i32, i32* %5, align 4
  %28 = load i32, i32* %11, align 4
  %29 = icmp sle i32 %27, %28
  br i1 %29, label %30, label %67

30:                                               ; preds = %26
  %31 = load i32, i32* %5, align 4
  %32 = sext i32 %31 to i64
  %33 = getelementptr inbounds [500 x i8], [500 x i8]* %10, i64 0, i64 %32
  %34 = load i8, i8* %33, align 1
  %35 = sext i8 %34 to i32
  %36 = icmp eq i32 %35, 32
  br i1 %36, label %37, label %63

37:                                               ; preds = %30
  %38 = load i32, i32* %5, align 4
  store i32 %38, i32* %13, align 4
  %39 = load i32, i32* %8, align 4
  %40 = sext i32 %39 to i64
  %41 = getelementptr inbounds [200 x [20 x i8]], [200 x [20 x i8]]* %9, i64 0, i64 %40
  %42 = getelementptr inbounds [20 x i8], [20 x i8]* %41, i64 0, i64 0
  %43 = load i32, i32* %12, align 4
  %44 = sext i32 %43 to i64
  %45 = getelementptr inbounds [500 x i8], [500 x i8]* %10, i64 0, i64 %44
  %46 = load i32, i32* %13, align 4
  %47 = load i32, i32* %12, align 4
  %48 = sub nsw i32 %46, %47
  %49 = sext i32 %48 to i64
  %50 = call i8* @strncpy(i8* %42, i8* %45, i64 %49) #5
  %51 = load i32, i32* %8, align 4
  %52 = sext i32 %51 to i64
  %53 = getelementptr inbounds [200 x [20 x i8]], [200 x [20 x i8]]* %9, i64 0, i64 %52
  %54 = load i32, i32* %13, align 4
  %55 = load i32, i32* %12, align 4
  %56 = sub nsw i32 %54, %55
  %57 = sext i32 %56 to i64
  %58 = getelementptr inbounds [20 x i8], [20 x i8]* %53, i64 0, i64 %57
  store i8 0, i8* %58, align 1
  %59 = load i32, i32* %8, align 4
  %60 = add nsw i32 %59, 1
  store i32 %60, i32* %8, align 4
  %61 = load i32, i32* %5, align 4
  %62 = add nsw i32 %61, 1
  store i32 %62, i32* %12, align 4
  br label %63

63:                                               ; preds = %37, %30
  br label %64

64:                                               ; preds = %63
  %65 = load i32, i32* %5, align 4
  %66 = add nsw i32 %65, 1
  store i32 %66, i32* %5, align 4
  br label %26

67:                                               ; preds = %26
  store i32 0, i32* %2, align 4
  store i32 100, i32* %3, align 4
  store i32 0, i32* %5, align 4
  br label %68

68:                                               ; preds = %107, %67
  %69 = load i32, i32* %5, align 4
  %70 = load i32, i32* %8, align 4
  %71 = icmp slt i32 %69, %70
  br i1 %71, label %72, label %110

72:                                               ; preds = %68
  %73 = load i32, i32* %5, align 4
  %74 = sext i32 %73 to i64
  %75 = getelementptr inbounds [200 x [20 x i8]], [200 x [20 x i8]]* %9, i64 0, i64 %74
  %76 = getelementptr inbounds [20 x i8], [20 x i8]* %75, i64 0, i64 0
  %77 = call i64 @strlen(i8* %76) #4
  %78 = load i32, i32* %2, align 4
  %79 = sext i32 %78 to i64
  %80 = icmp ugt i64 %77, %79
  br i1 %80, label %81, label %89

81:                                               ; preds = %72
  %82 = load i32, i32* %5, align 4
  %83 = sext i32 %82 to i64
  %84 = getelementptr inbounds [200 x [20 x i8]], [200 x [20 x i8]]* %9, i64 0, i64 %83
  %85 = getelementptr inbounds [20 x i8], [20 x i8]* %84, i64 0, i64 0
  %86 = call i64 @strlen(i8* %85) #4
  %87 = trunc i64 %86 to i32
  store i32 %87, i32* %2, align 4
  %88 = load i32, i32* %5, align 4
  store i32 %88, i32* %6, align 4
  br label %89

89:                                               ; preds = %81, %72
  %90 = load i32, i32* %5, align 4
  %91 = sext i32 %90 to i64
  %92 = getelementptr inbounds [200 x [20 x i8]], [200 x [20 x i8]]* %9, i64 0, i64 %91
  %93 = getelementptr inbounds [20 x i8], [20 x i8]* %92, i64 0, i64 0
  %94 = call i64 @strlen(i8* %93) #4
  %95 = load i32, i32* %3, align 4
  %96 = sext i32 %95 to i64
  %97 = icmp ult i64 %94, %96
  br i1 %97, label %98, label %106

98:                                               ; preds = %89
  %99 = load i32, i32* %5, align 4
  %100 = sext i32 %99 to i64
  %101 = getelementptr inbounds [200 x [20 x i8]], [200 x [20 x i8]]* %9, i64 0, i64 %100
  %102 = getelementptr inbounds [20 x i8], [20 x i8]* %101, i64 0, i64 0
  %103 = call i64 @strlen(i8* %102) #4
  %104 = trunc i64 %103 to i32
  store i32 %104, i32* %3, align 4
  %105 = load i32, i32* %5, align 4
  store i32 %105, i32* %7, align 4
  br label %106

106:                                              ; preds = %98, %89
  br label %107

107:                                              ; preds = %106
  %108 = load i32, i32* %5, align 4
  %109 = add nsw i32 %108, 1
  store i32 %109, i32* %5, align 4
  br label %68

110:                                              ; preds = %68
  %111 = load i32, i32* %6, align 4
  %112 = sext i32 %111 to i64
  %113 = getelementptr inbounds [200 x [20 x i8]], [200 x [20 x i8]]* %9, i64 0, i64 %112
  %114 = getelementptr inbounds [20 x i8], [20 x i8]* %113, i64 0, i64 0
  %115 = load i32, i32* %7, align 4
  %116 = sext i32 %115 to i64
  %117 = getelementptr inbounds [200 x [20 x i8]], [200 x [20 x i8]]* %9, i64 0, i64 %116
  %118 = getelementptr inbounds [20 x i8], [20 x i8]* %117, i64 0, i64 0
  %119 = call i32 (i8*, ...) @printf(i8* getelementptr inbounds ([6 x i8], [6 x i8]* @.str, i64 0, i64 0), i8* %114, i8* %118)
  ret i32 0
}

declare dso_local i32 @gets(...) #1

; Function Attrs: nounwind readonly
declare dso_local i64 @strlen(i8*) #2

; Function Attrs: nounwind
declare dso_local i8* @strncpy(i8*, i8*, i64) #3

declare dso_local i32 @printf(i8*, ...) #1


!llvm.module.flags = !{!0}
!llvm.ident = !{!1}

!0 = !{i32 1, !"wchar_size", i32 4}
!1 = !{!"clang version 10.0.0-4ubuntu1 "}
